target datalayout = "e-m:e-p270:32:32-p271:32:32-p272:64:64-i64:64-i128:128-f80:128-n8:16:32:64-S128"
target triple = "x86_64-pc-linux-gnu"

%struct.state = type { i32, i32, i32, i32, i8, i8, [2000 x i64], [2000 x i8], [256 x %struct.ttinfo], [512 x i8], [50 x %struct.lsinfo], i32 }
%struct.ttinfo = type { i32, i8, i32, i8, i8 }
%struct.lsinfo = type { i64, i64 }
%struct.pg_tz = type { [256 x i8], %struct.state }
%struct.pg_tzenum = type { i32, i32, [10 x ptr], [10 x ptr], %struct.pg_tz }

@.str.2 = private unnamed_addr constant [7 x i8] c"pgtz.c\00", align 1
@.str.7 = private unnamed_addr constant [34 x i8] c"could not open directory \22%s\22: %m\00", align 1
@__func__.pg_tzenumerate_start = private unnamed_addr constant [21 x i8] c"pg_tzenumerate_start\00", align 1
@pg_TZDIR.done_tzdir = internal global i8 0, align 1
@pg_TZDIR.tzdir = internal global [1024 x i8] zeroinitializer, align 16
@my_exec_path = external global [0 x i8], align 1
@.str.10 = private unnamed_addr constant [10 x i8] c"/timezone\00", align 1

; Function Attrs: nounwind uwtable
define internal ptr @pg_TZDIR() #0 {
  %1 = alloca ptr, align 8
  %2 = load i8, ptr @pg_TZDIR.done_tzdir, align 1, !range !4, !noundef !5
  %3 = trunc i8 %2 to i1
  br i1 %3, label %4, label %5

4:                                                ; preds = %0
  store ptr @pg_TZDIR.tzdir, ptr %1, align 8
  br label %11

5:                                                ; preds = %0
  call void @get_share_path(ptr noundef @my_exec_path, ptr noundef @pg_TZDIR.tzdir)
  %6 = call i64 @strlen(ptr noundef @pg_TZDIR.tzdir) #8
  %7 = getelementptr inbounds nuw i8, ptr @pg_TZDIR.tzdir, i64 %6
  %8 = call i64 @strlen(ptr noundef @pg_TZDIR.tzdir) #8
  %9 = sub i64 1024, %8
  %10 = call i64 @strlcpy(ptr noundef %7, ptr noundef @.str.10, i64 noundef %9)
  store i8 1, ptr @pg_TZDIR.done_tzdir, align 1
  store ptr @pg_TZDIR.tzdir, ptr %1, align 8
  br label %11

11:                                               ; preds = %5, %4
  %12 = load ptr, ptr %1, align 8
  ret ptr %12
}

; Function Attrs: nounwind uwtable
define dso_local ptr @pg_tzenumerate_start() #0 {
  %1 = alloca ptr, align 8
  %2 = alloca ptr, align 8
  call void @llvm.lifetime.start.p0(i64 8, ptr %1) #7
  %3 = call ptr @palloc0(i64 noundef 23864)
  store ptr %3, ptr %1, align 8
  call void @llvm.lifetime.start.p0(i64 8, ptr %2) #7
  %4 = call ptr @pg_TZDIR()
  %5 = call ptr @pstrdup(ptr noundef %4)
  store ptr %5, ptr %2, align 8
  %6 = load ptr, ptr %2, align 8
  %7 = call i64 @strlen(ptr noundef %6) #8
  %8 = add i64 %7, 1
  %9 = trunc i64 %8 to i32
  %10 = load ptr, ptr %1, align 8
  %11 = getelementptr inbounds nuw %struct.pg_tzenum, ptr %10, i32 0, i32 0
  store i32 %9, ptr %11, align 8
  %12 = load ptr, ptr %1, align 8
  %13 = getelementptr inbounds nuw %struct.pg_tzenum, ptr %12, i32 0, i32 1
  store i32 0, ptr %13, align 4
  %14 = load ptr, ptr %2, align 8
  %15 = load ptr, ptr %1, align 8
  %16 = getelementptr inbounds nuw %struct.pg_tzenum, ptr %15, i32 0, i32 3
  %17 = getelementptr inbounds [10 x ptr], ptr %16, i64 0, i64 0
  store ptr %14, ptr %17, align 8
  %18 = load ptr, ptr %2, align 8
  %19 = call ptr @AllocateDir(ptr noundef %18)
  %20 = load ptr, ptr %1, align 8
  %21 = getelementptr inbounds nuw %struct.pg_tzenum, ptr %20, i32 0, i32 2
  %22 = getelementptr inbounds [10 x ptr], ptr %21, i64 0, i64 0
  store ptr %19, ptr %22, align 8
  %23 = load ptr, ptr %1, align 8
  %24 = getelementptr inbounds nuw %struct.pg_tzenum, ptr %23, i32 0, i32 2
  %25 = getelementptr inbounds [10 x ptr], ptr %24, i64 0, i64 0
  %26 = load ptr, ptr %25, align 8
  %27 = icmp ne ptr %26, null
  br i1 %27, label %41, label %28

28:                                               ; preds = %0
  br label %29

29:                                               ; preds = %28
  br i1 true, label %30, label %32

30:                                               ; preds = %29
  %31 = call zeroext i1 @errstart_cold(i32 noundef 21, ptr noundef null) #9
  br i1 %31, label %34, label %38

32:                                               ; preds = %29
  %33 = call zeroext i1 @errstart(i32 noundef 21, ptr noundef null)
  br i1 %33, label %34, label %38

34:                                               ; preds = %32, %30
  %35 = call i32 @errcode_for_file_access()
  %36 = load ptr, ptr %2, align 8
  %37 = call i32 (ptr, ...) @errmsg(ptr noundef @.str.7, ptr noundef %36)
  call void @errfinish(ptr noundef @.str.2, i32 noundef 409, ptr noundef @__func__.pg_tzenumerate_start)
  br label %38

38:                                               ; preds = %34, %32, %30
  unreachable

39:                                               ; No predecessors!
  br label %40

40:                                               ; preds = %39
  br label %41

41:                                               ; preds = %40, %0
  %42 = load ptr, ptr %1, align 8
  call void @llvm.lifetime.end.p0(i64 8, ptr %2) #7
  call void @llvm.lifetime.end.p0(i64 8, ptr %1) #7
  ret ptr %42
}