; Function Attrs: nounwind uwtable
define dso_local ptr @pg_tzenumerate_start() local_unnamed_addr #0 {
  %1 = tail call ptr @palloc0(i64 noundef 23864) #10
  %.b1.i = load i1, ptr @pg_TZDIR.done_tzdir, align 1
  br i1 %.b1.i, label %pg_TZDIR.exit, label %2

2:                                                ; preds = %0
  tail call void @get_share_path(ptr noundef nonnull @my_exec_path, ptr noundef nonnull @pg_TZDIR.tzdir) #10
  %3 = tail call i64 @strlen(ptr noundef nonnull dereferenceable(1) @pg_TZDIR.tzdir) #11
  %4 = getelementptr inbounds nuw i8, ptr @pg_TZDIR.tzdir, i64 %3
  %5 = sub i64 1024, %3
  %6 = tail call i64 @strlcpy(ptr noundef nonnull %4, ptr noundef nonnull dereferenceable(1) @.str.10, i64 noundef %5) #10
  store i1 true, ptr @pg_TZDIR.done_tzdir, align 1
  br label %pg_TZDIR.exit

pg_TZDIR.exit:                                    ; preds = %0, %2
  %7 = tail call ptr @pstrdup(ptr noundef nonnull @pg_TZDIR.tzdir) #10
  %8 = tail call i64 @strlen(ptr noundef nonnull dereferenceable(1) %7) #11
  %9 = trunc i64 %8 to i32
  %10 = add i32 %9, 1
  store i32 %10, ptr %1, align 8
  %11 = getelementptr inbounds nuw i8, ptr %1, i64 4
  store i32 0, ptr %11, align 4
  %12 = getelementptr inbounds nuw i8, ptr %1, i64 88
  store ptr %7, ptr %12, align 8
  %13 = tail call ptr @AllocateDir(ptr noundef nonnull %7) #10
  %14 = getelementptr inbounds nuw i8, ptr %1, i64 8
  store ptr %13, ptr %14, align 8
  %.not = icmp eq ptr %13, null
  br i1 %.not, label %15, label %19

15:                                               ; preds = %pg_TZDIR.exit
  %16 = tail call zeroext i1 @errstart_cold(i32 noundef 21, ptr noundef null) #12
  tail call void @llvm.assume(i1 %16)
  %17 = tail call i32 @errcode_for_file_access() #10
  %18 = tail call i32 (ptr, ...) @errmsg(ptr noundef nonnull @.str.7, ptr noundef nonnull %7) #10
  tail call void @errfinish(ptr noundef nonnull @.str.2, i32 noundef 409, ptr noundef nonnull @__func__.pg_tzenumerate_start) #10
  unreachable

19:                                               ; preds = %pg_TZDIR.exit
  ret ptr %1
}